target datalayout = "e-m:e-p270:32:32-p271:32:32-p272:64:64-i64:64-i128:128-f80:128-n8:16:32:64-S128"
target triple = "x86_64-pc-linux-gnu"

%struct.DdManager = type { %struct.DdNode, ptr, ptr, ptr, ptr, ptr, ptr, ptr, i32, i32, double, double, double, i32, i32, i32, i32, i32, i32, ptr, ptr, %struct.DdSubtable, i32, i32, i32, i32, i32, i32, i32, double, i32, i32, i32, ptr, i64, double, i32, ptr, ptr, ptr, ptr, ptr, ptr, ptr, i32, ptr, ptr, ptr, ptr, ptr, ptr, i32, i32, i32, double, i32, i32, i32, i32, double, double, i32, i32, i32, i32, i32, i32, i32, i32, i32, ptr, ptr, i32, i32, i32, i32, i32, i32, ptr, ptr, ptr, ptr, ptr, ptr, ptr, ptr, i32, i64, i64, i64, i32, i64, i64, double, double, double, double, double, double, i32, ptr, ptr, i64 }
%struct.DdNode = type { i32, i32, ptr, %union.anon, i64 }
%union.anon = type { %struct.DdChildren }
%struct.DdChildren = type { ptr, ptr }
%struct.DdSubtable = type { ptr, i32, i32, i32, i32, i32, i32, i32, i32, i32, i32, i32 }

; Function Attrs: nounwind uwtable
define ptr @cuddZddIntersect(ptr noundef %0, ptr noundef %1, ptr noundef %2) #0 {
  %4 = alloca ptr, align 8
  %5 = alloca ptr, align 8
  %6 = alloca ptr, align 8
  %7 = alloca ptr, align 8
  %8 = alloca i32, align 4
  %9 = alloca i32, align 4
  %10 = alloca ptr, align 8
  %11 = alloca ptr, align 8
  %12 = alloca ptr, align 8
  %13 = alloca ptr, align 8
  %14 = alloca ptr, align 8
  %15 = alloca i32, align 4
  store ptr %0, ptr %5, align 8, !tbaa !3
  store ptr %1, ptr %6, align 8, !tbaa !8
  store ptr %2, ptr %7, align 8, !tbaa !8
  call void @llvm.lifetime.start.p0(i64 4, ptr %8) #3
  call void @llvm.lifetime.start.p0(i64 4, ptr %9) #3
  call void @llvm.lifetime.start.p0(i64 8, ptr %10) #3
  %16 = load ptr, ptr %5, align 8, !tbaa !3
  %17 = getelementptr inbounds nuw %struct.DdManager, ptr %16, i32 0, i32 2
  %18 = load ptr, ptr %17, align 8, !tbaa !29
  store ptr %18, ptr %10, align 8, !tbaa !8
  call void @llvm.lifetime.start.p0(i64 8, ptr %11) #3
  call void @llvm.lifetime.start.p0(i64 8, ptr %12) #3
  call void @llvm.lifetime.start.p0(i64 8, ptr %13) #3
  call void @llvm.lifetime.start.p0(i64 8, ptr %14) #3
  %19 = load ptr, ptr %5, align 8, !tbaa !3
  store ptr %19, ptr %14, align 8, !tbaa !3
  %20 = load ptr, ptr %6, align 8, !tbaa !8
  %21 = load ptr, ptr %10, align 8, !tbaa !8
  %22 = icmp eq ptr %20, %21
  br i1 %22, label %23, label %25

23:                                               ; preds = %3
  %24 = load ptr, ptr %10, align 8, !tbaa !8
  store ptr %24, ptr %4, align 8
  store i32 1, ptr %15, align 4
  br label %197

25:                                               ; preds = %3
  %26 = load ptr, ptr %7, align 8, !tbaa !8
  %27 = load ptr, ptr %10, align 8, !tbaa !8
  %28 = icmp eq ptr %26, %27
  br i1 %28, label %29, label %31

29:                                               ; preds = %25
  %30 = load ptr, ptr %10, align 8, !tbaa !8
  store ptr %30, ptr %4, align 8
  store i32 1, ptr %15, align 4
  br label %197

31:                                               ; preds = %25
  %32 = load ptr, ptr %6, align 8, !tbaa !8
  %33 = load ptr, ptr %7, align 8, !tbaa !8
  %34 = icmp eq ptr %32, %33
  br i1 %34, label %35, label %37

35:                                               ; preds = %31
  %36 = load ptr, ptr %6, align 8, !tbaa !8
  store ptr %36, ptr %4, align 8
  store i32 1, ptr %15, align 4
  br label %197

37:                                               ; preds = %31
  %38 = load ptr, ptr %14, align 8, !tbaa !3
  %39 = load ptr, ptr %6, align 8, !tbaa !8
  %40 = load ptr, ptr %7, align 8, !tbaa !8
  %41 = call ptr @cuddCacheLookup2Zdd(ptr noundef %38, ptr noundef @cuddZddIntersect, ptr noundef %39, ptr noundef %40)
  store ptr %41, ptr %13, align 8, !tbaa !8
  %42 = load ptr, ptr %13, align 8, !tbaa !8
  %43 = icmp ne ptr %42, null
  br i1 %43, label %44, label %46

44:                                               ; preds = %37
  %45 = load ptr, ptr %13, align 8, !tbaa !8
  store ptr %45, ptr %4, align 8
  store i32 1, ptr %15, align 4
  br label %197

46:                                               ; preds = %37
  %47 = load ptr, ptr %6, align 8, !tbaa !8
  %48 = getelementptr inbounds nuw %struct.DdNode, ptr %47, i32 0, i32 0
  %49 = load i32, ptr %48, align 8, !tbaa !30
  %50 = icmp eq i32 %49, 2147483647
  br i1 %50, label %51, label %55

51:                                               ; preds = %46
  %52 = load ptr, ptr %6, align 8, !tbaa !8
  %53 = getelementptr inbounds nuw %struct.DdNode, ptr %52, i32 0, i32 0
  %54 = load i32, ptr %53, align 8, !tbaa !30
  store i32 %54, ptr %8, align 4, !tbaa !32
  br label %65

55:                                               ; preds = %46
  %56 = load ptr, ptr %5, align 8, !tbaa !3
  %57 = getelementptr inbounds nuw %struct.DdManager, ptr %56, i32 0, i32 38
  %58 = load ptr, ptr %57, align 8, !tbaa !31
  %59 = load ptr, ptr %6, align 8, !tbaa !8
  %60 = getelementptr inbounds nuw %struct.DdNode, ptr %59, i32 0, i32 0
  %61 = load i32, ptr %60, align 8, !tbaa !30
  %62 = zext i32 %61 to i64
  %63 = getelementptr inbounds nuw i32, ptr %58, i64 %62
  %64 = load i32, ptr %63, align 4, !tbaa !32
  store i32 %64, ptr %8, align 4, !tbaa !32
  br label %65

65:                                               ; preds = %55, %51
  %66 = load ptr, ptr %7, align 8, !tbaa !8
  %67 = getelementptr inbounds nuw %struct.DdNode, ptr %66, i32 0, i32 0
  %68 = load i32, ptr %67, align 8, !tbaa !30
  %69 = icmp eq i32 %68, 2147483647
  br i1 %69, label %70, label %74

70:                                               ; preds = %65
  %71 = load ptr, ptr %7, align 8, !tbaa !8
  %72 = getelementptr inbounds nuw %struct.DdNode, ptr %71, i32 0, i32 0
  %73 = load i32, ptr %72, align 8, !tbaa !30
  store i32 %73, ptr %9, align 4, !tbaa !32
  br label %84

74:                                               ; preds = %65
  %75 = load ptr, ptr %5, align 8, !tbaa !3
  %76 = getelementptr inbounds nuw %struct.DdManager, ptr %75, i32 0, i32 38
  %77 = load ptr, ptr %76, align 8, !tbaa !31
  %78 = load ptr, ptr %7, align 8, !tbaa !8
  %79 = getelementptr inbounds nuw %struct.DdNode, ptr %78, i32 0, i32 0
  %80 = load i32, ptr %79, align 8, !tbaa !30
  %81 = zext i32 %80 to i64
  %82 = getelementptr inbounds nuw i32, ptr %77, i64 %81
  %83 = load i32, ptr %82, align 4, !tbaa !32
  store i32 %83, ptr %9, align 4, !tbaa !32
  br label %84

84:                                               ; preds = %74, %70
  %85 = load i32, ptr %8, align 4, !tbaa !32
  %86 = load i32, ptr %9, align 4, !tbaa !32
  %87 = icmp slt i32 %85, %86
  br i1 %87, label %88, label %100

88:                                               ; preds = %84
  %89 = load ptr, ptr %5, align 8, !tbaa !3
  %90 = load ptr, ptr %6, align 8, !tbaa !8
  %91 = getelementptr inbounds nuw %struct.DdNode, ptr %90, i32 0, i32 3
  %92 = getelementptr inbounds nuw %struct.DdChildren, ptr %91, i32 0, i32 1
  %93 = load ptr, ptr %92, align 8, !tbaa !35
  %94 = load ptr, ptr %7, align 8, !tbaa !8
  %95 = call ptr @cuddZddIntersect(ptr noundef %89, ptr noundef %93, ptr noundef %94)
  store ptr %95, ptr %13, align 8, !tbaa !8
  %96 = load ptr, ptr %13, align 8, !tbaa !8
  %97 = icmp eq ptr %96, null
  br i1 %97, label %98, label %99

98:                                               ; preds = %88
  store ptr null, ptr %4, align 8
  store i32 1, ptr %15, align 4
  br label %197

99:                                               ; preds = %88
  br label %191

100:                                              ; preds = %84
  %101 = load i32, ptr %8, align 4, !tbaa !32
  %102 = load i32, ptr %9, align 4, !tbaa !32
  %103 = icmp sgt i32 %101, %102
  br i1 %103, label %104, label %116

104:                                              ; preds = %100
  %105 = load ptr, ptr %5, align 8, !tbaa !3
  %106 = load ptr, ptr %6, align 8, !tbaa !8
  %107 = load ptr, ptr %7, align 8, !tbaa !8
  %108 = getelementptr inbounds nuw %struct.DdNode, ptr %107, i32 0, i32 3
  %109 = getelementptr inbounds nuw %struct.DdChildren, ptr %108, i32 0, i32 1
  %110 = load ptr, ptr %109, align 8, !tbaa !35
  %111 = call ptr @cuddZddIntersect(ptr noundef %105, ptr noundef %106, ptr noundef %110)
  store ptr %111, ptr %13, align 8, !tbaa !8
  %112 = load ptr, ptr %13, align 8, !tbaa !8
  %113 = icmp eq ptr %112, null
  br i1 %113, label %114, label %115

114:                                              ; preds = %104
  store ptr null, ptr %4, align 8
  store i32 1, ptr %15, align 4
  br label %197

115:                                              ; preds = %104
  br label %190

116:                                              ; preds = %100
  %117 = load ptr, ptr %5, align 8, !tbaa !3
  %118 = load ptr, ptr %6, align 8, !tbaa !8
  %119 = getelementptr inbounds nuw %struct.DdNode, ptr %118, i32 0, i32 3
  %120 = getelementptr inbounds nuw %struct.DdChildren, ptr %119, i32 0, i32 0
  %121 = load ptr, ptr %120, align 8, !tbaa !35
  %122 = load ptr, ptr %7, align 8, !tbaa !8
  %123 = getelementptr inbounds nuw %struct.DdNode, ptr %122, i32 0, i32 3
  %124 = getelementptr inbounds nuw %struct.DdChildren, ptr %123, i32 0, i32 0
  %125 = load ptr, ptr %124, align 8, !tbaa !35
  %126 = call ptr @cuddZddIntersect(ptr noundef %117, ptr noundef %121, ptr noundef %125)
  store ptr %126, ptr %11, align 8, !tbaa !8
  %127 = load ptr, ptr %11, align 8, !tbaa !8
  %128 = icmp eq ptr %127, null
  br i1 %128, label %129, label %130

129:                                              ; preds = %116
  store ptr null, ptr %4, align 8
  store i32 1, ptr %15, align 4
  br label %197

130:                                              ; preds = %116
  %131 = load ptr, ptr %11, align 8, !tbaa !8
  %132 = ptrtoint ptr %131 to i64
  %133 = and i64 %132, -2
  %134 = inttoptr i64 %133 to ptr
  %135 = getelementptr inbounds nuw %struct.DdNode, ptr %134, i32 0, i32 1
  %136 = load i32, ptr %135, align 4, !tbaa !36
  %137 = add i32 %136, 1
  store i32 %137, ptr %135, align 4, !tbaa !36
  %138 = load ptr, ptr %5, align 8, !tbaa !3
  %139 = load ptr, ptr %6, align 8, !tbaa !8
  %140 = getelementptr inbounds nuw %struct.DdNode, ptr %139, i32 0, i32 3
  %141 = getelementptr inbounds nuw %struct.DdChildren, ptr %140, i32 0, i32 1
  %142 = load ptr, ptr %141, align 8, !tbaa !35
  %143 = load ptr, ptr %7, align 8, !tbaa !8
  %144 = getelementptr inbounds nuw %struct.DdNode, ptr %143, i32 0, i32 3
  %145 = getelementptr inbounds nuw %struct.DdChildren, ptr %144, i32 0, i32 1
  %146 = load ptr, ptr %145, align 8, !tbaa !35
  %147 = call ptr @cuddZddIntersect(ptr noundef %138, ptr noundef %142, ptr noundef %146)
  store ptr %147, ptr %12, align 8, !tbaa !8
  %148 = load ptr, ptr %12, align 8, !tbaa !8
  %149 = icmp eq ptr %148, null
  br i1 %149, label %150, label %153

150:                                              ; preds = %130
  %151 = load ptr, ptr %14, align 8, !tbaa !3
  %152 = load ptr, ptr %11, align 8, !tbaa !8
  call void @Cudd_RecursiveDerefZdd(ptr noundef %151, ptr noundef %152)
  store ptr null, ptr %4, align 8
  store i32 1, ptr %15, align 4
  br label %197

153:                                              ; preds = %130
  %154 = load ptr, ptr %12, align 8, !tbaa !8
  %155 = ptrtoint ptr %154 to i64
  %156 = and i64 %155, -2
  %157 = inttoptr i64 %156 to ptr
  %158 = getelementptr inbounds nuw %struct.DdNode, ptr %157, i32 0, i32 1
  %159 = load i32, ptr %158, align 4, !tbaa !36
  %160 = add i32 %159, 1
  store i32 %160, ptr %158, align 4, !tbaa !36
  %161 = load ptr, ptr %5, align 8, !tbaa !3
  %162 = load ptr, ptr %6, align 8, !tbaa !8
  %163 = getelementptr inbounds nuw %struct.DdNode, ptr %162, i32 0, i32 0
  %164 = load i32, ptr %163, align 8, !tbaa !30
  %165 = load ptr, ptr %11, align 8, !tbaa !8
  %166 = load ptr, ptr %12, align 8, !tbaa !8
  %167 = call ptr @cuddZddGetNode(ptr noundef %161, i32 noundef %164, ptr noundef %165, ptr noundef %166)
  store ptr %167, ptr %13, align 8, !tbaa !8
  %168 = load ptr, ptr %13, align 8, !tbaa !8
  %169 = icmp eq ptr %168, null
  br i1 %169, label %170, label %175

170:                                              ; preds = %153
  %171 = load ptr, ptr %14, align 8, !tbaa !3
  %172 = load ptr, ptr %11, align 8, !tbaa !8
  call void @Cudd_RecursiveDerefZdd(ptr noundef %171, ptr noundef %172)
  %173 = load ptr, ptr %14, align 8, !tbaa !3
  %174 = load ptr, ptr %12, align 8, !tbaa !8
  call void @Cudd_RecursiveDerefZdd(ptr noundef %173, ptr noundef %174)
  store ptr null, ptr %4, align 8
  store i32 1, ptr %15, align 4
  br label %197

175:                                              ; preds = %153
  %176 = load ptr, ptr %11, align 8, !tbaa !8
  %177 = ptrtoint ptr %176 to i64
  %178 = and i64 %177, -2
  %179 = inttoptr i64 %178 to ptr
  %180 = getelementptr inbounds nuw %struct.DdNode, ptr %179, i32 0, i32 1
  %181 = load i32, ptr %180, align 4, !tbaa !36
  %182 = add i32 %181, -1
  store i32 %182, ptr %180, align 4, !tbaa !36
  %183 = load ptr, ptr %12, align 8, !tbaa !8
  %184 = ptrtoint ptr %183 to i64
  %185 = and i64 %184, -2
  %186 = inttoptr i64 %185 to ptr
  %187 = getelementptr inbounds nuw %struct.DdNode, ptr %186, i32 0, i32 1
  %188 = load i32, ptr %187, align 4, !tbaa !36
  %189 = add i32 %188, -1
  store i32 %189, ptr %187, align 4, !tbaa !36
  br label %190

190:                                              ; preds = %175, %115
  br label %191

191:                                              ; preds = %190, %99
  %192 = load ptr, ptr %14, align 8, !tbaa !3
  %193 = load ptr, ptr %6, align 8, !tbaa !8
  %194 = load ptr, ptr %7, align 8, !tbaa !8
  %195 = load ptr, ptr %13, align 8, !tbaa !8
  call void @cuddCacheInsert2(ptr noundef %192, ptr noundef @cuddZddIntersect, ptr noundef %193, ptr noundef %194, ptr noundef %195)
  %196 = load ptr, ptr %13, align 8, !tbaa !8
  store ptr %196, ptr %4, align 8
  store i32 1, ptr %15, align 4
  br label %197

197:                                              ; preds = %191, %170, %150, %129, %114, %98, %44, %35, %29, %23
  call void @llvm.lifetime.end.p0(i64 8, ptr %14) #3
  call void @llvm.lifetime.end.p0(i64 8, ptr %13) #3
  call void @llvm.lifetime.end.p0(i64 8, ptr %12) #3
  call void @llvm.lifetime.end.p0(i64 8, ptr %11) #3
  call void @llvm.lifetime.end.p0(i64 8, ptr %10) #3
  call void @llvm.lifetime.end.p0(i64 4, ptr %9) #3
  call void @llvm.lifetime.end.p0(i64 4, ptr %8) #3
  %198 = load ptr, ptr %4, align 8
  ret ptr %198
}