; Function Attrs: nounwind uwtable
define ptr @cuddZddIntersect(ptr noundef %0, ptr noundef %1, ptr noundef %2) #0 {
  %4 = getelementptr inbounds nuw i8, ptr %0, i64 48
  %5 = load ptr, ptr %4, align 8, !tbaa !26
  %6 = icmp eq ptr %1, %5
  %7 = icmp eq ptr %2, %5
  %or.cond = or i1 %6, %7
  br i1 %or.cond, label %82, label %8

8:                                                ; preds = %3
  %9 = icmp eq ptr %1, %2
  br i1 %9, label %82, label %10

10:                                               ; preds = %8
  %11 = tail call ptr @cuddCacheLookup2Zdd(ptr noundef nonnull %0, ptr noundef nonnull @cuddZddIntersect, ptr noundef %1, ptr noundef %2) #3
  %.not = icmp eq ptr %11, null
  br i1 %.not, label %12, label %82

12:                                               ; preds = %10
  %13 = load i32, ptr %1, align 8, !tbaa !27
  %14 = icmp eq i32 %13, 2147483647
  br i1 %14, label %21, label %15

15:                                               ; preds = %12
  %16 = getelementptr inbounds nuw i8, ptr %0, i64 320
  %17 = load ptr, ptr %16, align 8, !tbaa !28
  %18 = zext i32 %13 to i64
  %19 = getelementptr inbounds nuw i32, ptr %17, i64 %18
  %20 = load i32, ptr %19, align 4, !tbaa !29
  br label %21

21:                                               ; preds = %12, %15
  %.065 = phi i32 [ %20, %15 ], [ 2147483647, %12 ]
  %22 = load i32, ptr %2, align 8, !tbaa !27
  %23 = icmp eq i32 %22, 2147483647
  br i1 %23, label %30, label %24

24:                                               ; preds = %21
  %25 = getelementptr inbounds nuw i8, ptr %0, i64 320
  %26 = load ptr, ptr %25, align 8, !tbaa !28
  %27 = zext i32 %22 to i64
  %28 = getelementptr inbounds nuw i32, ptr %26, i64 %27
  %29 = load i32, ptr %28, align 4, !tbaa !29
  br label %30

30:                                               ; preds = %21, %24
  %.066 = phi i32 [ %29, %24 ], [ 2147483647, %21 ]
  %31 = icmp slt i32 %.065, %.066
  br i1 %31, label %32, label %37

32:                                               ; preds = %30
  %33 = getelementptr inbounds nuw i8, ptr %1, i64 24
  %34 = load ptr, ptr %33, align 8, !tbaa !32
  %35 = tail call ptr @cuddZddIntersect(ptr noundef nonnull %0, ptr noundef %34, ptr noundef nonnull %2)
  %36 = icmp eq ptr %35, null
  br i1 %36, label %82, label %81

37:                                               ; preds = %30
  %38 = icmp sgt i32 %.065, %.066
  br i1 %38, label %39, label %44

39:                                               ; preds = %37
  %40 = getelementptr inbounds nuw i8, ptr %2, i64 24
  %41 = load ptr, ptr %40, align 8, !tbaa !32
  %42 = tail call ptr @cuddZddIntersect(ptr noundef nonnull %0, ptr noundef nonnull %1, ptr noundef %41)
  %43 = icmp eq ptr %42, null
  br i1 %43, label %82, label %81

44:                                               ; preds = %37
  %45 = getelementptr inbounds nuw i8, ptr %1, i64 16
  %46 = load ptr, ptr %45, align 8, !tbaa !32
  %47 = getelementptr inbounds nuw i8, ptr %2, i64 16
  %48 = load ptr, ptr %47, align 8, !tbaa !32
  %49 = tail call ptr @cuddZddIntersect(ptr noundef nonnull %0, ptr noundef %46, ptr noundef %48)
  %50 = icmp eq ptr %49, null
  br i1 %50, label %82, label %51

51:                                               ; preds = %44
  %52 = ptrtoint ptr %49 to i64
  %53 = and i64 %52, -2
  %54 = inttoptr i64 %53 to ptr
  %55 = getelementptr inbounds nuw i8, ptr %54, i64 4
  %56 = load i32, ptr %55, align 4, !tbaa !33
  %57 = add i32 %56, 1
  store i32 %57, ptr %55, align 4, !tbaa !33
  %58 = getelementptr inbounds nuw i8, ptr %1, i64 24
  %59 = load ptr, ptr %58, align 8, !tbaa !32
  %60 = getelementptr inbounds nuw i8, ptr %2, i64 24
  %61 = load ptr, ptr %60, align 8, !tbaa !32
  %62 = tail call ptr @cuddZddIntersect(ptr noundef nonnull %0, ptr noundef %59, ptr noundef %61)
  %63 = icmp eq ptr %62, null
  br i1 %63, label %64, label %65

64:                                               ; preds = %51
  tail call void @Cudd_RecursiveDerefZdd(ptr noundef nonnull %0, ptr noundef nonnull %49) #3
  br label %82

65:                                               ; preds = %51
  %66 = ptrtoint ptr %62 to i64
  %67 = and i64 %66, -2
  %68 = inttoptr i64 %67 to ptr
  %69 = getelementptr inbounds nuw i8, ptr %68, i64 4
  %70 = load i32, ptr %69, align 4, !tbaa !33
  %71 = add i32 %70, 1
  store i32 %71, ptr %69, align 4, !tbaa !33
  %72 = load i32, ptr %1, align 8, !tbaa !27
  %73 = tail call ptr @cuddZddGetNode(ptr noundef nonnull %0, i32 noundef %72, ptr noundef nonnull %49, ptr noundef nonnull %62) #3
  %74 = icmp eq ptr %73, null
  br i1 %74, label %75, label %76

75:                                               ; preds = %65
  tail call void @Cudd_RecursiveDerefZdd(ptr noundef nonnull %0, ptr noundef nonnull %49) #3
  tail call void @Cudd_RecursiveDerefZdd(ptr noundef nonnull %0, ptr noundef nonnull %62) #3
  br label %82

76:                                               ; preds = %65
  %77 = load i32, ptr %55, align 4, !tbaa !33
  %78 = add i32 %77, -1
  store i32 %78, ptr %55, align 4, !tbaa !33
  %79 = load i32, ptr %69, align 4, !tbaa !33
  %80 = add i32 %79, -1
  store i32 %80, ptr %69, align 4, !tbaa !33
  br label %81

81:                                               ; preds = %76, %39, %32
  %.064 = phi ptr [ %35, %32 ], [ %42, %39 ], [ %73, %76 ]
  tail call void @cuddCacheInsert2(ptr noundef nonnull %0, ptr noundef nonnull @cuddZddIntersect, ptr noundef nonnull %1, ptr noundef nonnull %2, ptr noundef nonnull %.064) #3
  br label %82

82:                                               ; preds = %44, %39, %32, %10, %8, %3, %81, %75, %64
  %.0 = phi ptr [ %.064, %81 ], [ null, %64 ], [ null, %75 ], [ %5, %3 ], [ %1, %8 ], [ %11, %10 ], [ null, %32 ], [ null, %39 ], [ null, %44 ]
  ret ptr %.0
}